CCS PCM C Compiler, Version 5.091, 13314               19-feb.-25 12:32

               Filename:   C:\Users\Equipo33\Dropbox\Curso Verano 2022\UPPuebla\Sistemas de computo\repositorio\serial1\main.lst

               ROM used:   829 words (10%)
                           Largest free fragment is 2048
               RAM used:   11 (3%) at main() level
                           20 (5%) worst case
               Stack used: 2 locations
               Stack size: 8

0000:  MOVLW  02
0001:  MOVWF  0A
0002:  GOTO   280
0003:  NOP
.................... #include <main.h>
.................... #include <16F887.h>
.................... //////////// Standard Header file for the PIC16F887 device ////////////////
.................... ///////////////////////////////////////////////////////////////////////////
.................... ////        (C) Copyright 1996, 2014 Custom Computer Services          ////
.................... //// This source code may only be used by licensed users of the CCS C  ////
.................... //// compiler.  This source code may only be distributed to other      ////
.................... //// licensed users of the CCS C compiler.  No other use, reproduction ////
.................... //// or distribution is permitted without written permission.          ////
.................... //// Derivative programs created using this software in object code    ////
.................... //// form are not restricted in any way.                               ////
.................... ///////////////////////////////////////////////////////////////////////////
.................... #device PIC16F887
0004:  DATA 2A,15
0005:  DATA 2A,15
0006:  DATA 2A,15
0007:  DATA 2A,15
0008:  DATA 2A,15
0009:  DATA 2A,15
000A:  DATA 2A,15
000B:  DATA 2A,15
000C:  DATA 2A,15
000D:  DATA 2A,15
000E:  DATA 2A,15
000F:  DATA 2A,15
0010:  DATA 2A,15
0011:  DATA 00,00
0012:  DATA 20,10
0013:  DATA 20,10
0014:  DATA C8,37
0015:  DATA EC,30
0016:  DATA A0,26
0017:  DATA 75,37
0018:  DATA E4,37
0019:  DATA 20,10
001A:  DATA 20,10
001B:  DATA 20,10
001C:  DATA 20,10
001D:  DATA 20,10
001E:  DATA 20,10
001F:  DATA 20,00
0020:  DATA 2A,15
0021:  DATA 2A,15
0022:  DATA 2A,15
0023:  DATA 2A,15
0024:  DATA 2A,15
0025:  DATA 2A,15
0026:  DATA 2A,15
0027:  DATA 2A,15
0028:  DATA 2A,15
0029:  DATA 2A,15
002A:  DATA 2A,15
002B:  DATA 2A,15
002C:  DATA 2A,15
002D:  DATA 00,01
002E:  DATA 2A,15
002F:  DATA 2A,15
0030:  DATA 2A,15
0031:  DATA 2A,15
0032:  DATA 2A,15
0033:  DATA 2A,15
0034:  DATA 2A,15
0035:  DATA 2A,15
0036:  DATA 2A,15
0037:  DATA 2A,15
0038:  DATA 2A,15
0039:  DATA 2A,15
003A:  DATA 2A,15
003B:  DATA 00,00
003C:  DATA 20,10
003D:  DATA 20,10
003E:  DATA C8,37
003F:  DATA EC,30
0040:  DATA A0,26
0041:  DATA 75,37
0042:  DATA E4,37
0043:  DATA 20,10
0044:  DATA 20,10
0045:  DATA 20,10
0046:  DATA 20,10
0047:  DATA 20,10
0048:  DATA 20,10
0049:  DATA 20,00
004A:  DATA 2A,15
004B:  DATA 2A,15
004C:  DATA 2A,15
004D:  DATA 2A,15
004E:  DATA 2A,15
004F:  DATA 2A,15
0050:  DATA 2A,15
0051:  DATA 2A,15
0052:  DATA 2A,15
0053:  DATA 2A,15
0054:  DATA 2A,15
0055:  DATA 2A,15
0056:  DATA 2A,15
0057:  DATA 00,01
0058:  DATA E5,39
0059:  DATA F4,32
005A:  DATA A0,32
005B:  DATA 73,10
005C:  DATA 65,36
005D:  DATA A0,37
005E:  DATA 74,39
005F:  DATA 6F,10
0060:  DATA F0,3A
0061:  DATA 65,39
0062:  DATA F4,37
0063:  DATA 20,10
0064:  DATA 0A,10
0065:  DATA 0D,00
0066:  DATA E5,39
0067:  DATA F4,32
0068:  DATA A0,32
0069:  DATA 73,10
006A:  DATA 65,36
006B:  DATA 20,3B
006C:  DATA 61,36
006D:  DATA 6F,39
006E:  DATA 20,32
006F:  DATA 65,10
0070:  DATA 25,26
0071:  DATA 64,10
0072:  DATA 0A,10
0073:  DATA 0D,00
0074:  DATA C5,39
0075:  DATA 63,39
0076:  DATA 69,31
0077:  DATA 69,39
0078:  DATA A0,32
0079:  DATA 6E,10
007A:  DATA 65,36
007B:  DATA 20,38
007C:  DATA F5,32
007D:  DATA 72,3A
007E:  DATA 6F,10
007F:  DATA F3,32
0080:  DATA F2,34
0081:  DATA 61,36
0082:  DATA 00,00
0083:  MOVF   0B,W
0084:  MOVWF  26
0085:  BCF    0B.7
0086:  BSF    03.5
0087:  BSF    03.6
0088:  BSF    0C.7
0089:  BSF    0C.0
008A:  NOP
008B:  NOP
008C:  BCF    03.5
008D:  BCF    03.6
008E:  BTFSC  26.7
008F:  BSF    0B.7
0090:  BSF    03.6
0091:  MOVF   0C,W
0092:  ANDLW  7F
0093:  BTFSC  03.2
0094:  GOTO   0D9
0095:  BCF    03.6
0096:  MOVWF  26
0097:  BSF    03.6
0098:  MOVF   0D,W
0099:  BCF    03.6
009A:  MOVWF  27
009B:  BSF    03.6
009C:  MOVF   0F,W
009D:  BCF    03.6
009E:  MOVWF  28
009F:  MOVF   26,W
00A0:  BTFSS  0C.4
00A1:  GOTO   0A0
00A2:  MOVWF  19
00A3:  MOVF   27,W
00A4:  BSF    03.6
00A5:  MOVWF  0D
00A6:  BCF    03.6
00A7:  MOVF   28,W
00A8:  BSF    03.6
00A9:  MOVWF  0F
00AA:  BCF    03.6
00AB:  MOVF   0B,W
00AC:  MOVWF  29
00AD:  BCF    0B.7
00AE:  BSF    03.5
00AF:  BSF    03.6
00B0:  BSF    0C.7
00B1:  BSF    0C.0
00B2:  NOP
00B3:  NOP
00B4:  BCF    03.5
00B5:  BCF    03.6
00B6:  BTFSC  29.7
00B7:  BSF    0B.7
00B8:  BSF    03.6
00B9:  RLF    0C,W
00BA:  RLF    0E,W
00BB:  ANDLW  7F
00BC:  BTFSC  03.2
00BD:  GOTO   0D9
00BE:  BCF    03.6
00BF:  MOVWF  26
00C0:  BSF    03.6
00C1:  MOVF   0D,W
00C2:  BCF    03.6
00C3:  MOVWF  27
00C4:  BSF    03.6
00C5:  MOVF   0F,W
00C6:  BCF    03.6
00C7:  MOVWF  28
00C8:  MOVF   26,W
00C9:  BTFSS  0C.4
00CA:  GOTO   0C9
00CB:  MOVWF  19
00CC:  MOVF   27,W
00CD:  BSF    03.6
00CE:  MOVWF  0D
00CF:  BCF    03.6
00D0:  MOVF   28,W
00D1:  BSF    03.6
00D2:  MOVWF  0F
00D3:  INCF   0D,F
00D4:  BTFSC  03.2
00D5:  INCF   0F,F
00D6:  BCF    03.6
00D7:  GOTO   083
00D8:  BSF    03.6
00D9:  BCF    03.6
00DA:  RETURN
*
00FF:  MOVF   0B,W
0100:  MOVWF  26
0101:  BCF    0B.7
0102:  BSF    03.5
0103:  BSF    03.6
0104:  BSF    0C.7
0105:  BSF    0C.0
0106:  NOP
0107:  NOP
0108:  BCF    03.5
0109:  BCF    03.6
010A:  BTFSC  26.7
010B:  BSF    0B.7
010C:  BSF    03.6
010D:  MOVF   0C,W
010E:  ANDLW  7F
010F:  BTFSC  03.2
0110:  GOTO   153
0111:  BCF    03.6
0112:  MOVWF  26
0113:  BSF    03.6
0114:  MOVF   0D,W
0115:  BCF    03.6
0116:  MOVWF  27
0117:  BSF    03.6
0118:  MOVF   0F,W
0119:  BCF    03.6
011A:  MOVWF  28
011B:  MOVF   26,W
011C:  MOVWF  29
011D:  CALL   0DB
011E:  MOVF   27,W
011F:  BSF    03.6
0120:  MOVWF  0D
0121:  BCF    03.6
0122:  MOVF   28,W
0123:  BSF    03.6
0124:  MOVWF  0F
0125:  BCF    03.6
0126:  MOVF   0B,W
0127:  MOVWF  29
0128:  BCF    0B.7
0129:  BSF    03.5
012A:  BSF    03.6
012B:  BSF    0C.7
012C:  BSF    0C.0
012D:  NOP
012E:  NOP
012F:  BCF    03.5
0130:  BCF    03.6
0131:  BTFSC  29.7
0132:  BSF    0B.7
0133:  BSF    03.6
0134:  RLF    0C,W
0135:  RLF    0E,W
0136:  ANDLW  7F
0137:  BTFSC  03.2
0138:  GOTO   153
0139:  BCF    03.6
013A:  MOVWF  26
013B:  BSF    03.6
013C:  MOVF   0D,W
013D:  BCF    03.6
013E:  MOVWF  27
013F:  BSF    03.6
0140:  MOVF   0F,W
0141:  BCF    03.6
0142:  MOVWF  28
0143:  MOVF   26,W
0144:  MOVWF  29
0145:  CALL   0DB
0146:  MOVF   27,W
0147:  BSF    03.6
0148:  MOVWF  0D
0149:  BCF    03.6
014A:  MOVF   28,W
014B:  BSF    03.6
014C:  MOVWF  0F
014D:  INCF   0D,F
014E:  BTFSC  03.2
014F:  INCF   0F,F
0150:  BCF    03.6
0151:  GOTO   0FF
0152:  BSF    03.6
0153:  BCF    03.6
0154:  RETURN
0155:  MOVF   0B,W
0156:  MOVWF  27
0157:  BCF    0B.7
0158:  BSF    03.5
0159:  BSF    03.6
015A:  BSF    0C.7
015B:  BSF    0C.0
015C:  NOP
015D:  NOP
015E:  BCF    03.5
015F:  BCF    03.6
0160:  BTFSC  27.7
0161:  BSF    0B.7
0162:  BTFSC  03.0
0163:  GOTO   18D
0164:  BSF    03.6
0165:  MOVF   0C,W
0166:  ANDLW  7F
0167:  BCF    03.6
0168:  MOVWF  27
0169:  BSF    03.6
016A:  MOVF   0D,W
016B:  BCF    03.6
016C:  MOVWF  28
016D:  BSF    03.6
016E:  MOVF   0F,W
016F:  BCF    03.6
0170:  MOVWF  29
0171:  MOVF   27,W
0172:  BTFSS  0C.4
0173:  GOTO   172
0174:  MOVWF  19
0175:  MOVF   28,W
0176:  BSF    03.6
0177:  MOVWF  0D
0178:  BCF    03.6
0179:  MOVF   29,W
017A:  BSF    03.6
017B:  MOVWF  0F
017C:  BCF    03.6
017D:  MOVF   0B,W
017E:  MOVWF  2A
017F:  BCF    0B.7
0180:  BSF    03.5
0181:  BSF    03.6
0182:  BSF    0C.7
0183:  BSF    0C.0
0184:  NOP
0185:  NOP
0186:  BCF    03.5
0187:  BCF    03.6
0188:  BTFSC  2A.7
0189:  BSF    0B.7
018A:  DECFSZ 26,F
018B:  GOTO   18D
018C:  GOTO   1AD
018D:  BSF    03.6
018E:  RLF    0C,W
018F:  RLF    0E,W
0190:  ANDLW  7F
0191:  BCF    03.6
0192:  MOVWF  27
0193:  BSF    03.6
0194:  MOVF   0D,W
0195:  BCF    03.6
0196:  MOVWF  28
0197:  BSF    03.6
0198:  MOVF   0F,W
0199:  BCF    03.6
019A:  MOVWF  29
019B:  MOVF   27,W
019C:  BTFSS  0C.4
019D:  GOTO   19C
019E:  MOVWF  19
019F:  MOVF   28,W
01A0:  BSF    03.6
01A1:  MOVWF  0D
01A2:  BCF    03.6
01A3:  MOVF   29,W
01A4:  BSF    03.6
01A5:  MOVWF  0F
01A6:  INCF   0D,F
01A7:  BTFSC  03.2
01A8:  INCF   0F,F
01A9:  BCF    03.0
01AA:  BCF    03.6
01AB:  DECFSZ 26,F
01AC:  GOTO   155
01AD:  RETURN
01AE:  CLRF   2E
01AF:  MOVF   04,W
01B0:  MOVWF  2D
01B1:  BCF    2E.0
01B2:  BTFSC  03.7
01B3:  BSF    2E.0
01B4:  BTFSS  27.7
01B5:  GOTO   1BE
01B6:  BSF    2D.7
01B7:  BTFSS  2D.4
01B8:  INCF   2D,F
01B9:  COMF   26,F
01BA:  COMF   27,F
01BB:  INCF   26,F
01BC:  BTFSC  03.2
01BD:  INCF   27,F
01BE:  SWAPF  27,W
01BF:  IORLW  F0
01C0:  MOVWF  29
01C1:  ADDWF  29,F
01C2:  ADDLW  E2
01C3:  MOVWF  2A
01C4:  ADDLW  32
01C5:  MOVWF  2C
01C6:  MOVF   27,W
01C7:  ANDLW  0F
01C8:  ADDWF  2A,F
01C9:  ADDWF  2A,F
01CA:  ADDWF  2C,F
01CB:  ADDLW  E9
01CC:  MOVWF  2B
01CD:  ADDWF  2B,F
01CE:  ADDWF  2B,F
01CF:  SWAPF  26,W
01D0:  ANDLW  0F
01D1:  ADDWF  2B,F
01D2:  ADDWF  2C,F
01D3:  RLF    2B,F
01D4:  RLF    2C,F
01D5:  COMF   2C,F
01D6:  RLF    2C,F
01D7:  MOVF   26,W
01D8:  ANDLW  0F
01D9:  ADDWF  2C,F
01DA:  RLF    29,F
01DB:  MOVLW  07
01DC:  MOVWF  28
01DD:  MOVLW  0A
01DE:  ADDWF  2C,F
01DF:  DECF   2B,F
01E0:  BTFSS  03.0
01E1:  GOTO   1DE
01E2:  ADDWF  2B,F
01E3:  DECF   2A,F
01E4:  BTFSS  03.0
01E5:  GOTO   1E2
01E6:  ADDWF  2A,F
01E7:  DECF   29,F
01E8:  BTFSS  03.0
01E9:  GOTO   1E6
01EA:  ADDWF  29,F
01EB:  DECF   28,F
01EC:  BTFSS  03.0
01ED:  GOTO   1EA
01EE:  MOVLW  28
01EF:  MOVWF  04
01F0:  BCF    03.7
01F1:  MOVLW  07
01F2:  ANDWF  2D,W
01F3:  BCF    2D.6
01F4:  DECF   04,F
01F5:  ANDWF  2D,W
01F6:  BTFSS  03.2
01F7:  GOTO   1FF
01F8:  BTFSC  2D.4
01F9:  INCF   04,F
01FA:  BTFSC  2D.4
01FB:  GOTO   1FF
01FC:  MOVLW  20
01FD:  MOVWF  77
01FE:  GOTO   21C
01FF:  ADDWF  04,F
0200:  MOVLW  2C
0201:  SUBWF  04,W
0202:  BTFSC  03.2
0203:  BSF    2D.6
0204:  MOVF   00,W
0205:  MOVWF  77
0206:  BTFSS  03.2
0207:  GOTO   210
0208:  BTFSC  2D.6
0209:  GOTO   210
020A:  BTFSC  2D.4
020B:  GOTO   220
020C:  BTFSC  2D.3
020D:  GOTO   210
020E:  MOVLW  20
020F:  GOTO   21B
0210:  BTFSS  2D.7
0211:  GOTO   218
0212:  MOVLW  2D
0213:  MOVWF  77
0214:  DECF   04,F
0215:  BCF    2D.6
0216:  BCF    2D.7
0217:  GOTO   21C
0218:  BSF    2D.3
0219:  BCF    2D.4
021A:  MOVLW  30
021B:  ADDWF  77,F
021C:  MOVF   77,W
021D:  BTFSS  0C.4
021E:  GOTO   21D
021F:  MOVWF  19
0220:  INCF   04,F
0221:  BTFSS  2D.6
0222:  GOTO   200
0223:  BCF    0A.3
0224:  BCF    0A.4
0225:  GOTO   323 (RETURN)
0226:  MOVF   0B,W
0227:  MOVWF  26
0228:  BCF    0B.7
0229:  BSF    03.5
022A:  BSF    03.6
022B:  BSF    0C.7
022C:  BSF    0C.0
022D:  NOP
022E:  NOP
022F:  BCF    03.5
0230:  BCF    03.6
0231:  BTFSC  26.7
0232:  BSF    0B.7
0233:  BSF    03.6
0234:  MOVF   0C,W
0235:  ANDLW  7F
0236:  BTFSC  03.2
0237:  GOTO   27C
0238:  BCF    03.6
0239:  MOVWF  26
023A:  BSF    03.6
023B:  MOVF   0D,W
023C:  BCF    03.6
023D:  MOVWF  27
023E:  BSF    03.6
023F:  MOVF   0F,W
0240:  BCF    03.6
0241:  MOVWF  28
0242:  MOVF   26,W
0243:  BTFSS  0C.4
0244:  GOTO   243
0245:  MOVWF  19
0246:  MOVF   27,W
0247:  BSF    03.6
0248:  MOVWF  0D
0249:  BCF    03.6
024A:  MOVF   28,W
024B:  BSF    03.6
024C:  MOVWF  0F
024D:  BCF    03.6
024E:  MOVF   0B,W
024F:  MOVWF  29
0250:  BCF    0B.7
0251:  BSF    03.5
0252:  BSF    03.6
0253:  BSF    0C.7
0254:  BSF    0C.0
0255:  NOP
0256:  NOP
0257:  BCF    03.5
0258:  BCF    03.6
0259:  BTFSC  29.7
025A:  BSF    0B.7
025B:  BSF    03.6
025C:  RLF    0C,W
025D:  RLF    0E,W
025E:  ANDLW  7F
025F:  BTFSC  03.2
0260:  GOTO   27C
0261:  BCF    03.6
0262:  MOVWF  26
0263:  BSF    03.6
0264:  MOVF   0D,W
0265:  BCF    03.6
0266:  MOVWF  27
0267:  BSF    03.6
0268:  MOVF   0F,W
0269:  BCF    03.6
026A:  MOVWF  28
026B:  MOVF   26,W
026C:  BTFSS  0C.4
026D:  GOTO   26C
026E:  MOVWF  19
026F:  MOVF   27,W
0270:  BSF    03.6
0271:  MOVWF  0D
0272:  BCF    03.6
0273:  MOVF   28,W
0274:  BSF    03.6
0275:  MOVWF  0F
0276:  INCF   0D,F
0277:  BTFSC  03.2
0278:  INCF   0F,F
0279:  BCF    03.6
027A:  GOTO   226
027B:  BSF    03.6
027C:  BCF    03.6
027D:  BCF    0A.3
027E:  BCF    0A.4
027F:  GOTO   334 (RETURN)
.................... 
.................... #list
.................... 
.................... #device ADC=10
.................... #use delay(crystal=20000000)
.................... //configuración del puerto serial
.................... #use rs232(baud=9600,parity=N,xmit=PIN_C6,rcv=PIN_C7,bits=8,stream=PORT1)
.................... #use rs232(baud=115200,parity=N,xmit=PIN_C0,rcv=PIN_C1,bits=8,stream=PORT2)
*
00DB:  BCF    20.0
00DC:  MOVF   20,W
00DD:  BSF    03.5
00DE:  MOVWF  07
00DF:  BCF    03.5
00E0:  BCF    07.0
00E1:  MOVLW  08
00E2:  MOVWF  78
00E3:  GOTO   0E4
00E4:  NOP
00E5:  BSF    78.7
00E6:  GOTO   0F5
00E7:  BCF    78.7
00E8:  RRF    29,F
00E9:  BTFSC  03.0
00EA:  BSF    07.0
00EB:  BTFSS  03.0
00EC:  BCF    07.0
00ED:  BSF    78.6
00EE:  GOTO   0F5
00EF:  BCF    78.6
00F0:  DECFSZ 78,F
00F1:  GOTO   0E8
00F2:  GOTO   0F3
00F3:  NOP
00F4:  BSF    07.0
00F5:  MOVLW  08
00F6:  MOVWF  04
00F7:  DECFSZ 04,F
00F8:  GOTO   0F7
00F9:  NOP
00FA:  BTFSC  78.7
00FB:  GOTO   0E7
00FC:  BTFSC  78.6
00FD:  GOTO   0EF
00FE:  RETURN
.................... 
.................... //informacion
.................... //https://www.microlink.co.uk/rs232.html
.................... //http://wearcam.org/seatsale/programs/www.beyondlogic.org/serial/serial.htm
.................... 
.................... int16 variable;
.................... char ch;
.................... void main()
*
0280:  MOVF   03,W
0281:  ANDLW  1F
0282:  MOVWF  03
0283:  BSF    03.5
0284:  BSF    03.6
0285:  BSF    07.3
0286:  MOVLW  08
0287:  BCF    03.6
0288:  MOVWF  19
0289:  MOVLW  02
028A:  MOVWF  1A
028B:  MOVLW  A6
028C:  MOVWF  18
028D:  MOVLW  90
028E:  BCF    03.5
028F:  MOVWF  18
0290:  MOVLW  FF
0291:  MOVWF  20
0292:  BCF    20.0
0293:  MOVF   20,W
0294:  BSF    03.5
0295:  MOVWF  07
0296:  BCF    03.5
0297:  BSF    07.0
0298:  CLRF   25
0299:  CLRF   24
029A:  BSF    03.5
029B:  BSF    03.6
029C:  MOVF   09,W
029D:  ANDLW  C0
029E:  MOVWF  09
029F:  BCF    03.6
02A0:  BCF    1F.4
02A1:  BCF    1F.5
02A2:  MOVLW  00
02A3:  BSF    03.6
02A4:  MOVWF  08
02A5:  BCF    03.5
02A6:  CLRF   07
02A7:  CLRF   08
02A8:  CLRF   09
02A9:  BCF    03.7
.................... {
.................... variable= 12500;
02AA:  MOVLW  30
02AB:  BCF    03.6
02AC:  MOVWF  22
02AD:  MOVLW  D4
02AE:  MOVWF  21
.................... puts("**************************");
02AF:  MOVLW  04
02B0:  BSF    03.6
02B1:  MOVWF  0D
02B2:  MOVLW  00
02B3:  MOVWF  0F
02B4:  BCF    03.6
02B5:  CALL   083
02B6:  MOVLW  0D
02B7:  BTFSS  0C.4
02B8:  GOTO   2B7
02B9:  MOVWF  19
02BA:  MOVLW  0A
02BB:  BTFSS  0C.4
02BC:  GOTO   2BB
02BD:  MOVWF  19
.................... 
.................... puts("    Hola Mundo             ");
02BE:  MOVLW  12
02BF:  BSF    03.6
02C0:  MOVWF  0D
02C1:  MOVLW  00
02C2:  MOVWF  0F
02C3:  BCF    03.6
02C4:  CALL   083
02C5:  MOVLW  0D
02C6:  BTFSS  0C.4
02C7:  GOTO   2C6
02C8:  MOVWF  19
02C9:  MOVLW  0A
02CA:  BTFSS  0C.4
02CB:  GOTO   2CA
02CC:  MOVWF  19
.................... puts("**************************");
02CD:  MOVLW  20
02CE:  BSF    03.6
02CF:  MOVWF  0D
02D0:  MOVLW  00
02D1:  MOVWF  0F
02D2:  BCF    03.6
02D3:  CALL   083
02D4:  MOVLW  0D
02D5:  BTFSS  0C.4
02D6:  GOTO   2D5
02D7:  MOVWF  19
02D8:  MOVLW  0A
02D9:  BTFSS  0C.4
02DA:  GOTO   2D9
02DB:  MOVWF  19
.................... 
.................... //puerto serial 2
.................... puts("**************************",PORT2);
02DC:  MOVLW  2E
02DD:  BSF    03.6
02DE:  MOVWF  0D
02DF:  MOVLW  00
02E0:  MOVWF  0F
02E1:  BCF    03.6
02E2:  CALL   0FF
02E3:  MOVLW  0D
02E4:  MOVWF  29
02E5:  CALL   0DB
02E6:  MOVLW  0A
02E7:  MOVWF  29
02E8:  CALL   0DB
.................... puts("    Hola Mundo             ",PORT2);
02E9:  MOVLW  3C
02EA:  BSF    03.6
02EB:  MOVWF  0D
02EC:  MOVLW  00
02ED:  MOVWF  0F
02EE:  BCF    03.6
02EF:  CALL   0FF
02F0:  MOVLW  0D
02F1:  MOVWF  29
02F2:  CALL   0DB
02F3:  MOVLW  0A
02F4:  MOVWF  29
02F5:  CALL   0DB
.................... puts("**************************",PORT2);
02F6:  MOVLW  4A
02F7:  BSF    03.6
02F8:  MOVWF  0D
02F9:  MOVLW  00
02FA:  MOVWF  0F
02FB:  BCF    03.6
02FC:  CALL   0FF
02FD:  MOVLW  0D
02FE:  MOVWF  29
02FF:  CALL   0DB
0300:  MOVLW  0A
0301:  MOVWF  29
0302:  CALL   0DB
.................... fprintf(PORT2,"este es el otro puerto  \n \r");
0303:  MOVLW  58
0304:  BSF    03.6
0305:  MOVWF  0D
0306:  MOVLW  00
0307:  MOVWF  0F
0308:  BCF    03.6
0309:  CALL   0FF
.................... 
.................... 
.................... putc('\n'); // nueva línea
030A:  MOVLW  0A
030B:  BTFSS  0C.4
030C:  GOTO   30B
030D:  MOVWF  19
.................... putc('\r'); // retorno de linea
030E:  MOVLW  0D
030F:  BTFSS  0C.4
0310:  GOTO   30F
0311:  MOVWF  19
.................... 
.................... fprintf(PORT1,"este es el valor de %Ld \n \r", variable);
0312:  MOVLW  66
0313:  BSF    03.6
0314:  MOVWF  0D
0315:  MOVLW  00
0316:  MOVWF  0F
0317:  BCF    03.0
0318:  MOVLW  14
0319:  BCF    03.6
031A:  MOVWF  26
031B:  CALL   155
031C:  MOVLW  10
031D:  MOVWF  04
031E:  MOVF   22,W
031F:  MOVWF  27
0320:  MOVF   21,W
0321:  MOVWF  26
0322:  GOTO   1AE
0323:  MOVLW  71
0324:  BSF    03.6
0325:  MOVWF  0D
0326:  MOVLW  00
0327:  MOVWF  0F
0328:  BSF    03.0
0329:  MOVLW  04
032A:  BCF    03.6
032B:  MOVWF  26
032C:  CALL   155
.................... printf("Escribir en el puerto serial");
032D:  MOVLW  74
032E:  BSF    03.6
032F:  MOVWF  0D
0330:  MOVLW  00
0331:  MOVWF  0F
0332:  BCF    03.6
0333:  GOTO   226
....................    while(TRUE)
....................    {
.................... ch = getc();  //recibimos por un puerto
0334:  BTFSS  0C.5
0335:  GOTO   334
0336:  MOVF   1A,W
0337:  MOVWF  23
....................   putc(ch,PORT2) ;   //enviamos por el puerto2
0338:  MOVF   23,W
0339:  MOVWF  29
033A:  CALL   0DB
033B:  GOTO   334
....................    }
.................... 
.................... }
033C:  SLEEP

Configuration Fuses:
   Word  1: 2FE2   HS NOWDT PUT MCLR NOPROTECT NOCPD BROWNOUT IESO FCMEN NOLVP NODEBUG
   Word  2: 3FFF   BORV40 NOWRT
